; Function Attrs: mustprogress uwtable
define void @_ZN8facebook5velox9RowVector11appendNullsEi(ptr noundef nonnull align 8 dereferenceable(138) %this, i32 noundef %numberOfRows) local_unnamed_addr #0 align 2 {
entry:
  %cmp = icmp slt i32 %numberOfRows, 0
  br i1 %cmp, label %if.then, label %if.end

if.then:                                          ; preds = %entry
  tail call void @llvm.trap()
  unreachable

if.end:                                           ; preds = %entry
  %cmp2 = icmp eq i32 %numberOfRows, 0
  br i1 %cmp2, label %return, label %if.end4

if.end4:                                          ; preds = %if.end
  %length_ = getelementptr inbounds i8, ptr %this, i64 56
  %0 = load i32, ptr %length_, align 8
  %add = add nsw i32 %0, %numberOfRows
  tail call void @_ZN8facebook5velox10BaseVector6resizeEib(ptr noundef nonnull align 8 dereferenceable(99) %this, i32 noundef %add, i1 noundef zeroext false)
  %1 = load i32, ptr %length_, align 8
  tail call void @_ZN8facebook5velox10BaseVector19ensureNullsCapacityEib(ptr noundef nonnull align 8 dereferenceable(99) %this, i32 noundef %1, i1 noundef zeroext true)
  %rawNulls_.i = getelementptr inbounds i8, ptr %this, i64 40
  %2 = load ptr, ptr %rawNulls_.i, align 8
  %add.i.i = add i32 %0, 63
  %3 = srem i32 %add.i.i, 64
  %mul.i.i = sub nsw i32 %add.i.i, %3
  %4 = and i32 %add, -64
  %cmp2.i = icmp slt i32 %4, %mul.i.i
  br i1 %cmp2.i, label %if.then3.i, label %if.end8.i

if.then3.i:                                       ; preds = %if.end4
  %sub.i = and i32 %add, 63
  %sh_prom.i.i = zext nneg i32 %sub.i to i64
  %notmask.i.i = shl nsw i64 -1, %sh_prom.i.i
  %sub5.i = sub nsw i32 %mul.i.i, %0
  %sh_prom.i.i.i = zext nneg i32 %sub5.i to i64
  %notmask.i.i.i = shl nsw i64 -1, %sh_prom.i.i.i
  %sub.i.i.i = xor i64 %notmask.i.i.i, -1
  %sub.i23.i = sub nsw i32 64, %sub5.i
  %sh_prom.i24.i = zext nneg i32 %sub.i23.i to i64
  %shl.i.i = shl i64 %sub.i.i.i, %sh_prom.i24.i
  %shl.i.i.not = xor i64 %shl.i.i, -1
  %not.i.i = or i64 %notmask.i.i, %shl.i.i.not
  br label %return.sink.split

if.end8.i:                                        ; preds = %if.end4
  %cmp9.not.i = icmp eq i32 %mul.i.i, %0
  br i1 %cmp9.not.i, label %if.end14.i, label %if.then10.i

if.then10.i:                                      ; preds = %if.end8.i
  %div11.i = sdiv i32 %0, 64
  %sub12.i = sub nsw i32 %mul.i.i, %0
  %sh_prom.i.i25.i = zext nneg i32 %sub12.i to i64
  %notmask.i.i26.i = shl nsw i64 -1, %sh_prom.i.i25.i
  %sub.i.i27.i = xor i64 %notmask.i.i26.i, -1
  %sub.i28.i = sub nsw i32 64, %sub12.i
  %sh_prom.i29.i = zext nneg i32 %sub.i28.i to i64
  %shl.i30.i = shl i64 %sub.i.i27.i, %sh_prom.i29.i
  %not.i37.i = xor i64 %shl.i30.i, -1
  %idxprom2.i38.i = sext i32 %div11.i to i64
  %arrayidx3.i39.i = getelementptr inbounds i64, ptr %2, i64 %idxprom2.i38.i
  %5 = load i64, ptr %arrayidx3.i39.i, align 8
  %and4.i40.i = and i64 %5, %not.i37.i
  store i64 %and4.i40.i, ptr %arrayidx3.i39.i, align 8
  br label %if.end14.i

if.end14.i:                                       ; preds = %if.then10.i, %if.end8.i
  %add64.i = add nsw i32 %mul.i.i, 64
  %cmp15.not65.i = icmp sgt i32 %add64.i, %4
  br i1 %cmp15.not65.i, label %for.end.i, label %for.body.i

for.body.i:                                       ; preds = %if.end14.i, %for.body.i
  %add67.i = phi i32 [ %add.i, %for.body.i ], [ %add64.i, %if.end14.i ]
  %i.066.i = phi i32 [ %add67.i, %for.body.i ], [ %mul.i.i, %if.end14.i ]
  %div16.i = sdiv i32 %i.066.i, 64
  %idxprom.i42.i = sext i32 %div16.i to i64
  %arrayidx.i43.i = getelementptr inbounds i64, ptr %2, i64 %idxprom.i42.i
  store i64 0, ptr %arrayidx.i43.i, align 8
  %add.i = add nsw i32 %add67.i, 64
  %cmp15.not.i = icmp sgt i32 %add.i, %4
  br i1 %cmp15.not.i, label %for.end.i, label %for.body.i, !llvm.loop !107

for.end.i:                                        ; preds = %for.body.i, %if.end14.i
  %cmp18.not.i = icmp eq i32 %4, %add
  br i1 %cmp18.not.i, label %return, label %if.then19.i

if.then19.i:                                      ; preds = %for.end.i
  %sub21.i = and i32 %add, 63
  %sh_prom.i44.i = zext nneg i32 %sub21.i to i64
  %notmask.i45.i = shl nsw i64 -1, %sh_prom.i44.i
  br label %return.sink.split

return.sink.split:                                ; preds = %if.then3.i, %if.then19.i
  %notmask.i45.i.sink = phi i64 [ %notmask.i45.i, %if.then19.i ], [ %not.i.i, %if.then3.i ]
  %div.i.sink = ashr i32 %add, 6
  %idxprom2.i.i = sext i32 %div.i.sink to i64
  %arrayidx3.i.i = getelementptr inbounds i64, ptr %2, i64 %idxprom2.i.i
  %6 = load i64, ptr %arrayidx3.i.i, align 8
  %and4.i55.i = and i64 %6, %notmask.i45.i.sink
  store i64 %and4.i55.i, ptr %arrayidx3.i.i, align 8
  br label %return

return:                                           ; preds = %return.sink.split, %for.end.i, %if.end
  ret void
}